ccopy_reg
_reconstructor
p0
(csystem_class
System
p1
c__builtin__
object
p2
Ntp3
Rp4
(dp5
S'input_seqs'
p6
(lp7
sS'name'
p8
S'HalfAdder'
p9
sS'lengths'
p10
g0
(cutils
ordered_dict
p11
c__builtin__
dict
p12
(dp13
S'nx0'
p14
I26
sS'nc1'
p15
I26
sS'ny0'
p16
I26
sS's0'
p17
I26
sS'ns0'
p18
I26
sS'y0'
p19
I26
sS'x0'
p20
I26
sS'c1'
p21
I26
stp22
Rp23
(dp24
S'order'
p25
(lp26
g14
ag16
ag18
ag15
ag19
ag17
ag20
ag21
asbsS'components'
p27
g0
(g11
g12
(dp28
S'G0_01'
p29
g0
(ccomponent_class
Component
p30
g2
Ntp31
Rp32
(dp33
g6
(lp34
g0
(cDNA_classes
Sequence
p35
g2
Ntp36
Rp37
(dp38
S'dummy'
p39
I00
sS'const'
p40
S'NNNNNNNNNNNNNNNNNNNNNNNNNN'
p41
sg8
S'x'
p42
sS'seq'
p43
NsS'reversed'
p44
I00
sS'prefix'
p45
S'G0_01-'
p46
sS'in_strand'
p47
I01
sS'length'
p48
I26
sS'full_name'
p49
S'G0_01-x'
p50
sS'wc'
p51
g0
(cDNA_classes
ReverseSequence
p52
g2
Ntp53
Rp54
(dp55
g39
I00
sg51
g37
sg8
S'x*'
p56
sg43
Nsg44
I01
sg45
g46
sg48
I26
sg49
S'G0_01-x*'
p57
sbsbag0
(g35
g2
Ntp58
Rp59
(dp60
g39
I00
sg40
S'NNNNNNNNNNNNNNNNNNNNNNNNNN'
p61
sg8
S'y'
p62
sg43
Nsg44
I00
sg45
g46
sg47
I01
sg48
I26
sg49
S'G0_01-y'
p63
sg51
g0
(g52
g2
Ntp64
Rp65
(dp66
g39
I00
sg51
g59
sg8
S'y*'
p67
sg43
Nsg44
I01
sg45
g46
sg48
I26
sg49
S'G0_01-y*'
p68
sbsbasg8
S'And22'
p69
sS'input_structs'
p70
(lp71
NaNasS'sup_seqs'
p72
g0
(g11
g12
(dp73
tp74
Rp75
(dp76
g25
(lp77
sbsS'kinetics'
p78
g0
(g11
g12
(dp79
S'Kin0'
p80
g0
(cDNA_classes
Kinetics
p81
g2
Ntp82
Rp83
(dp84
S'inputs'
p85
(lp86
g0
(cDNA_classes
Structure
p87
g2
Ntp88
Rp89
(dp90
S'opt'
p91
F1.0
sg8
S'InX'
p92
sg43
NsS'base_seqs'
p93
(lp94
g37
asg45
g46
sg49
S'G0_01-InX'
p95
sS'mfe_struct'
p96
NsS'strands'
p97
(lp98
g0
(cDNA_classes
Strand
p99
g2
Ntp100
Rp101
(dp102
g39
I00
sg51
g0
(cDNA_classes
ReverseSuperSequence
p103
g2
Ntp104
Rp105
(dp106
g39
I00
sg51
g101
sg8
S'inX*'
p107
sg43
Nsg44
I01
sg45
g46
sg93
(lp108
g54
asg48
I26
sg49
S'G0_01-inX*'
p109
sS'seqs'
p110
(lp111
g54
asbsg8
S'inX'
p112
sg43
Nsg44
I00
sg48
I26
sg93
(lp113
g37
asg45
g46
sg49
S'G0_01-inX'
p114
sg110
(lp115
g37
asS'in_structure'
p116
I01
sbasS'struct'
p117
S'..........................'
p118
sbag0
(g87
g2
Ntp119
Rp120
(dp121
g91
F10.0
sg8
S'G'
p122
sg43
Nsg93
(lp123
g54
ag0
(cDNA_classes
AnonymousSequence
p124
g2
Ntp125
Rp126
(dp127
g39
I00
sg40
S'NNNN'
p128
sg8
S'_Anon3'
p129
sg43
Nsg44
I00
sg45
g46
sg47
I01
sg48
I4
sg49
S'G0_01-_Anon3'
p130
sg51
g0
(g52
g2
Ntp131
Rp132
(dp133
g39
I00
sg51
g126
sg8
S'_Anon3*'
p134
sg43
Nsg44
I01
sg45
g46
sg48
I4
sg49
S'G0_01-_Anon3*'
p135
sbsbag0
(g35
g2
Ntp136
Rp137
(dp138
g39
I00
sg40
S'NNNNNNNNNNNNNNNNNNNNNNNNNN'
p139
sg8
S's'
p140
sg43
Nsg44
I00
sg45
g46
sg47
I01
sg48
I26
sg49
S'G0_01-s'
p141
sg51
g0
(g52
g2
Ntp142
Rp143
(dp144
g39
I00
sg51
g137
sg8
S's*'
p145
sg43
Nsg44
I01
sg45
g46
sg48
I26
sg49
S'G0_01-s*'
p146
sbsbag0
(g35
g2
Ntp147
Rp148
(dp149
g39
I00
sg40
S'NNNNNNNNNNNNNNNNNNNNNNNNNN'
p150
sg8
S'c'
p151
sg43
Nsg44
I00
sg45
g46
sg47
I01
sg48
I26
sg49
S'G0_01-c'
p152
sg51
g0
(g52
g2
Ntp153
Rp154
(dp155
g39
I00
sg51
g148
sg8
S'c*'
p156
sg43
Nsg44
I01
sg45
g46
sg48
I26
sg49
S'G0_01-c*'
p157
sbsbag0
(g124
g2
Ntp158
Rp159
(dp160
g39
I00
sg40
S'NNNN'
p161
sg8
S'_Anon4'
p162
sg43
Nsg44
I00
sg45
g46
sg47
I01
sg48
I4
sg49
S'G0_01-_Anon4'
p163
sg51
g0
(g52
g2
Ntp164
Rp165
(dp166
g39
I00
sg51
g159
sg8
S'_Anon4*'
p167
sg43
Nsg44
I01
sg45
g46
sg48
I4
sg49
S'G0_01-_Anon4*'
p168
sbsbag65
ag0
(g124
g2
Ntp169
Rp170
(dp171
g39
I00
sg40
S'NNNNNNNNNNNNNN'
p172
sg8
S'_Anon5'
p173
sg43
Nsg44
I00
sg45
g46
sg47
I01
sg48
I14
sg49
S'G0_01-_Anon5'
p174
sg51
g0
(g52
g2
Ntp175
Rp176
(dp177
g39
I00
sg51
g170
sg8
S'_Anon5*'
p178
sg43
Nsg44
I01
sg45
g46
sg48
I14
sg49
S'G0_01-_Anon5*'
p179
sbsbasg45
g46
sg49
S'G0_01-G'
p180
sg96
Nsg97
(lp181
g0
(g99
g2
Ntp182
Rp183
(dp184
g39
I00
sg51
g0
(g103
g2
Ntp185
Rp186
(dp187
g39
I00
sg51
g183
sg8
S'X*'
p188
sg43
Nsg44
I01
sg45
g46
sg93
(lp189
g37
asg48
I26
sg49
S'G0_01-X*'
p190
sg110
(lp191
g37
asbsg8
S'X'
p192
sg43
Nsg44
I00
sg48
I26
sg93
(lp193
g54
asg45
g46
sg49
S'G0_01-X'
p194
sg110
(lp195
g54
asg116
I01
sbag0
(g99
g2
Ntp196
Rp197
(dp198
g39
I00
sg51
g0
(g103
g2
Ntp199
Rp200
(dp201
g39
I00
sg51
g197
sg8
S'SC*'
p202
sg43
Nsg44
I01
sg45
g46
sg93
(lp203
g165
ag154
ag143
ag132
asg48
I60
sg49
S'G0_01-SC*'
p204
sg110
(lp205
g165
ag154
ag143
ag132
asbsg8
S'SC'
p206
sg43
Nsg44
I00
sg48
I60
sg93
(lp207
g126
ag137
ag148
ag159
asg45
g46
sg49
S'G0_01-SC'
p208
sg110
(lp209
g126
ag137
ag148
ag159
asg116
I01
sbag0
(g99
g2
Ntp210
Rp211
(dp212
g39
I00
sg51
g0
(g103
g2
Ntp213
Rp214
(dp215
g39
I00
sg51
g211
sg8
S'Y*'
p216
sg43
Nsg44
I01
sg45
g46
sg93
(lp217
g176
ag59
asg48
I40
sg49
S'G0_01-Y*'
p218
sg110
(lp219
g176
ag59
asbsg8
S'Y'
p220
sg43
Nsg44
I00
sg48
I40
sg93
(lp221
g65
ag170
asg45
g46
sg49
S'G0_01-Y'
p222
sg110
(lp223
g65
ag170
asg116
I01
sbasg117
S'......((((((((((((((((((((+((((((((((........................................((((((((((+))))))))))))))))))))))))))))))))))))))))'
p224
sbasg8
g80
sS'outputs'
p225
(lp226
g0
(g87
g2
Ntp227
Rp228
(dp229
g91
F0.0
sg8
S'wasteX'
p230
sg43
Nsg93
(lp231
g37
ag54
asg45
g46
sg49
S'G0_01-wasteX'
p232
sg96
Nsg97
(lp233
g101
ag183
asg117
S'((((((((((((((((((((((((((+))))))))))))))))))))))))))'
p234
sbag0
(g87
g2
Ntp235
Rp236
(dp237
g91
F10.0
sg8
S'Ga'
p238
sg43
Nsg93
(lp239
g126
ag137
ag148
ag159
ag65
ag170
asg45
g46
sg49
S'G0_01-Ga'
p240
sg96
Nsg97
(lp241
g197
ag211
asg117
S'((((((((((........................................((((((((((+))))))))))))))))))))....................'
p242
sbasS'high'
p243
Finf
sg45
g46
sS'low'
p244
I0
sg49
S'G0_01-Kin0'
p245
sbsS'Kin1'
p246
g0
(g81
g2
Ntp247
Rp248
(dp249
g85
(lp250
g0
(g87
g2
Ntp251
Rp252
(dp253
g91
F1.0
sg8
S'InY'
p254
sg43
Nsg93
(lp255
g59
asg45
g46
sg49
S'G0_01-InY'
p256
sg96
Nsg97
(lp257
g0
(g99
g2
Ntp258
Rp259
(dp260
g39
I00
sg51
g0
(g103
g2
Ntp261
Rp262
(dp263
g39
I00
sg51
g259
sg8
S'inY*'
p264
sg43
Nsg44
I01
sg45
g46
sg93
(lp265
g65
asg48
I26
sg49
S'G0_01-inY*'
p266
sg110
(lp267
g65
asbsg8
S'inY'
p268
sg43
Nsg44
I00
sg48
I26
sg93
(lp269
g59
asg45
g46
sg49
S'G0_01-inY'
p270
sg110
(lp271
g59
asg116
I01
sbasg117
S'..........................'
p272
sbag236
asg8
g246
sg225
(lp273
g0
(g87
g2
Ntp274
Rp275
(dp276
g91
F0.0
sg8
S'wasteY'
p277
sg43
Nsg93
(lp278
g59
ag65
ag170
asg45
g46
sg49
S'G0_01-wasteY'
p279
sg96
Nsg97
(lp280
g259
ag211
asg117
S'((((((((((((((((((((((((((+))))))))))))))))))))))))))..............'
p281
sbag0
(g87
g2
Ntp282
Rp283
(dp284
g91
F1.0
sg8
S'OutSC'
p285
sg43
Nsg93
(lp286
g126
ag137
ag148
ag159
asg45
g46
sg49
S'G0_01-OutSC'
p287
sg96
Nsg97
(lp288
g197
asg117
S'............................................................'
p289
sbasg243
Finf
sg45
g46
sg244
I0
sg49
S'G0_01-Kin1'
p290
sbstp291
Rp292
(dp293
g25
(lp294
g80
ag246
asbsg93
g0
(g11
g12
(dp295
g151
g148
sg173
g170
sg162
g159
sg42
g37
sg62
g59
sg140
g137
sg129
g126
stp296
Rp297
(dp298
g25
(lp299
g42
ag140
ag151
ag62
ag129
ag162
ag173
asbsS'kin_num'
p300
I2
sg45
g46
sS'params'
p301
(lp302
S't'
p303
aS'd'
p304
asg110
g0
(g11
g12
(dp305
g151
g148
sg173
g170
sg162
g159
sg42
g37
sg62
g59
sg140
g137
sg129
g126
stp306
Rp307
(dp308
g25
(lp309
g42
ag140
ag151
ag62
ag129
ag162
ag173
asbsg97
g0
(g11
g12
(dp310
g206
g197
sg192
g183
sg112
g101
sg268
g259
sg220
g211
stp311
Rp312
(dp313
g25
(lp314
g112
ag268
ag192
ag206
ag220
asbsS'structs'
p315
g0
(g11
g12
(dp316
g285
g283
sg230
g228
sg254
g252
sg122
g120
sg92
g89
sg238
g236
sg277
g275
stp317
Rp318
(dp319
g25
(lp320
g92
ag254
ag122
ag238
ag230
ag277
ag285
asbsS'output_structs'
p321
(lp322
NaNasS'output_seqs'
p323
(lp324
g137
ag148
asbsS'G0_00'
p325
g0
(g30
g2
Ntp326
Rp327
(dp328
g6
(lp329
g0
(g35
g2
Ntp330
Rp331
(dp332
g39
I00
sg40
S'NNNNNNNNNNNNNNNNNNNNNNNNNN'
p333
sg8
g42
sg43
Nsg44
I00
sg45
S'G0_00-'
p334
sg47
I01
sg48
I26
sg49
S'G0_00-x'
p335
sg51
g0
(g52
g2
Ntp336
Rp337
(dp338
g39
I00
sg51
g331
sg8
S'x*'
p339
sg43
Nsg44
I01
sg45
g334
sg48
I26
sg49
S'G0_00-x*'
p340
sbsbag0
(g35
g2
Ntp341
Rp342
(dp343
g39
I00
sg40
S'NNNNNNNNNNNNNNNNNNNNNNNNNN'
p344
sg8
g62
sg43
Nsg44
I00
sg45
g334
sg47
I01
sg48
I26
sg49
S'G0_00-y'
p345
sg51
g0
(g52
g2
Ntp346
Rp347
(dp348
g39
I00
sg51
g342
sg8
S'y*'
p349
sg43
Nsg44
I01
sg45
g334
sg48
I26
sg49
S'G0_00-y*'
p350
sbsbasg8
S'And22'
p351
sg70
(lp352
NaNasg72
g0
(g11
g12
(dp353
tp354
Rp355
(dp356
g25
(lp357
sbsg78
g0
(g11
g12
(dp358
S'Kin0'
p359
g0
(g81
g2
Ntp360
Rp361
(dp362
g85
(lp363
g0
(g87
g2
Ntp364
Rp365
(dp366
g91
F1.0
sg8
S'InX'
p367
sg43
Nsg93
(lp368
g331
asg45
g334
sg49
S'G0_00-InX'
p369
sg96
Nsg97
(lp370
g0
(g99
g2
Ntp371
Rp372
(dp373
g39
I00
sg51
g0
(g103
g2
Ntp374
Rp375
(dp376
g39
I00
sg51
g372
sg8
S'inX*'
p377
sg43
Nsg44
I01
sg45
g334
sg93
(lp378
g337
asg48
I26
sg49
S'G0_00-inX*'
p379
sg110
(lp380
g337
asbsg8
S'inX'
p381
sg43
Nsg44
I00
sg48
I26
sg93
(lp382
g331
asg45
g334
sg49
S'G0_00-inX'
p383
sg110
(lp384
g331
asg116
I01
sbasg117
S'..........................'
p385
sbag0
(g87
g2
Ntp386
Rp387
(dp388
g91
F10.0
sg8
g122
sg43
Nsg93
(lp389
g337
ag0
(g124
g2
Ntp390
Rp391
(dp392
g39
I00
sg40
S'NNNN'
p393
sg8
S'_Anon0'
p394
sg43
Nsg44
I00
sg45
g334
sg47
I01
sg48
I4
sg49
S'G0_00-_Anon0'
p395
sg51
g0
(g52
g2
Ntp396
Rp397
(dp398
g39
I00
sg51
g391
sg8
S'_Anon0*'
p399
sg43
Nsg44
I01
sg45
g334
sg48
I4
sg49
S'G0_00-_Anon0*'
p400
sbsbag0
(g35
g2
Ntp401
Rp402
(dp403
g39
I00
sg40
S'NNNNNNNNNNNNNNNNNNNNNNNNNN'
p404
sg8
g140
sg43
Nsg44
I00
sg45
g334
sg47
I01
sg48
I26
sg49
S'G0_00-s'
p405
sg51
g0
(g52
g2
Ntp406
Rp407
(dp408
g39
I00
sg51
g402
sg8
S's*'
p409
sg43
Nsg44
I01
sg45
g334
sg48
I26
sg49
S'G0_00-s*'
p410
sbsbag0
(g35
g2
Ntp411
Rp412
(dp413
g39
I00
sg40
S'NNNNNNNNNNNNNNNNNNNNNNNNNN'
p414
sg8
g151
sg43
Nsg44
I00
sg45
g334
sg47
I01
sg48
I26
sg49
S'G0_00-c'
p415
sg51
g0
(g52
g2
Ntp416
Rp417
(dp418
g39
I00
sg51
g412
sg8
S'c*'
p419
sg43
Nsg44
I01
sg45
g334
sg48
I26
sg49
S'G0_00-c*'
p420
sbsbag0
(g124
g2
Ntp421
Rp422
(dp423
g39
I00
sg40
S'NNNN'
p424
sg8
S'_Anon1'
p425
sg43
Nsg44
I00
sg45
g334
sg47
I01
sg48
I4
sg49
S'G0_00-_Anon1'
p426
sg51
g0
(g52
g2
Ntp427
Rp428
(dp429
g39
I00
sg51
g422
sg8
S'_Anon1*'
p430
sg43
Nsg44
I01
sg45
g334
sg48
I4
sg49
S'G0_00-_Anon1*'
p431
sbsbag347
ag0
(g124
g2
Ntp432
Rp433
(dp434
g39
I00
sg40
S'NNNNNNNNNNNNNN'
p435
sg8
S'_Anon2'
p436
sg43
Nsg44
I00
sg45
g334
sg47
I01
sg48
I14
sg49
S'G0_00-_Anon2'
p437
sg51
g0
(g52
g2
Ntp438
Rp439
(dp440
g39
I00
sg51
g433
sg8
S'_Anon2*'
p441
sg43
Nsg44
I01
sg45
g334
sg48
I14
sg49
S'G0_00-_Anon2*'
p442
sbsbasg45
g334
sg49
S'G0_00-G'
p443
sg96
Nsg97
(lp444
g0
(g99
g2
Ntp445
Rp446
(dp447
g39
I00
sg51
g0
(g103
g2
Ntp448
Rp449
(dp450
g39
I00
sg51
g446
sg8
S'X*'
p451
sg43
Nsg44
I01
sg45
g334
sg93
(lp452
g331
asg48
I26
sg49
S'G0_00-X*'
p453
sg110
(lp454
g331
asbsg8
g192
sg43
Nsg44
I00
sg48
I26
sg93
(lp455
g337
asg45
g334
sg49
S'G0_00-X'
p456
sg110
(lp457
g337
asg116
I01
sbag0
(g99
g2
Ntp458
Rp459
(dp460
g39
I00
sg51
g0
(g103
g2
Ntp461
Rp462
(dp463
g39
I00
sg51
g459
sg8
S'SC*'
p464
sg43
Nsg44
I01
sg45
g334
sg93
(lp465
g428
ag417
ag407
ag397
asg48
I60
sg49
S'G0_00-SC*'
p466
sg110
(lp467
g428
ag417
ag407
ag397
asbsg8
S'SC'
p468
sg43
Nsg44
I00
sg48
I60
sg93
(lp469
g391
ag402
ag412
ag422
asg45
g334
sg49
S'G0_00-SC'
p470
sg110
(lp471
g391
ag402
ag412
ag422
asg116
I01
sbag0
(g99
g2
Ntp472
Rp473
(dp474
g39
I00
sg51
g0
(g103
g2
Ntp475
Rp476
(dp477
g39
I00
sg51
g473
sg8
S'Y*'
p478
sg43
Nsg44
I01
sg45
g334
sg93
(lp479
g439
ag342
asg48
I40
sg49
S'G0_00-Y*'
p480
sg110
(lp481
g439
ag342
asbsg8
g220
sg43
Nsg44
I00
sg48
I40
sg93
(lp482
g347
ag433
asg45
g334
sg49
S'G0_00-Y'
p483
sg110
(lp484
g347
ag433
asg116
I01
sbasg117
S'......((((((((((((((((((((+((((((((((........................................((((((((((+))))))))))))))))))))))))))))))))))))))))'
p485
sbasg8
g359
sg225
(lp486
g0
(g87
g2
Ntp487
Rp488
(dp489
g91
F0.0
sg8
S'wasteX'
p490
sg43
Nsg93
(lp491
g331
ag337
asg45
g334
sg49
S'G0_00-wasteX'
p492
sg96
Nsg97
(lp493
g372
ag446
asg117
S'((((((((((((((((((((((((((+))))))))))))))))))))))))))'
p494
sbag0
(g87
g2
Ntp495
Rp496
(dp497
g91
F10.0
sg8
S'Ga'
p498
sg43
Nsg93
(lp499
g391
ag402
ag412
ag422
ag347
ag433
asg45
g334
sg49
S'G0_00-Ga'
p500
sg96
Nsg97
(lp501
g459
ag473
asg117
S'((((((((((........................................((((((((((+))))))))))))))))))))....................'
p502
sbasg243
Finf
sg45
g334
sg244
I0
sg49
S'G0_00-Kin0'
p503
sbsS'Kin1'
p504
g0
(g81
g2
Ntp505
Rp506
(dp507
g85
(lp508
g0
(g87
g2
Ntp509
Rp510
(dp511
g91
F1.0
sg8
S'InY'
p512
sg43
Nsg93
(lp513
g342
asg45
g334
sg49
S'G0_00-InY'
p514
sg96
Nsg97
(lp515
g0
(g99
g2
Ntp516
Rp517
(dp518
g39
I00
sg51
g0
(g103
g2
Ntp519
Rp520
(dp521
g39
I00
sg51
g517
sg8
S'inY*'
p522
sg43
Nsg44
I01
sg45
g334
sg93
(lp523
g347
asg48
I26
sg49
S'G0_00-inY*'
p524
sg110
(lp525
g347
asbsg8
S'inY'
p526
sg43
Nsg44
I00
sg48
I26
sg93
(lp527
g342
asg45
g334
sg49
S'G0_00-inY'
p528
sg110
(lp529
g342
asg116
I01
sbasg117
S'..........................'
p530
sbag496
asg8
g504
sg225
(lp531
g0
(g87
g2
Ntp532
Rp533
(dp534
g91
F0.0
sg8
S'wasteY'
p535
sg43
Nsg93
(lp536
g342
ag347
ag433
asg45
g334
sg49
S'G0_00-wasteY'
p537
sg96
Nsg97
(lp538
g517
ag473
asg117
S'((((((((((((((((((((((((((+))))))))))))))))))))))))))..............'
p539
sbag0
(g87
g2
Ntp540
Rp541
(dp542
g91
F1.0
sg8
S'OutSC'
p543
sg43
Nsg93
(lp544
g391
ag402
ag412
ag422
asg45
g334
sg49
S'G0_00-OutSC'
p545
sg96
Nsg97
(lp546
g459
asg117
S'............................................................'
p547
sbasg243
Finf
sg45
g334
sg244
I0
sg49
S'G0_00-Kin1'
p548
sbstp549
Rp550
(dp551
g25
(lp552
g359
ag504
asbsg93
g0
(g11
g12
(dp553
g425
g422
sg394
g391
sg151
g412
sg436
g433
sg62
g342
sg42
g331
sg140
g402
stp554
Rp555
(dp556
g25
(lp557
g42
ag140
ag151
ag62
ag394
ag425
ag436
asbsg300
I2
sg45
g334
sg301
(lp558
g303
ag304
asg110
g0
(g11
g12
(dp559
g425
g422
sg394
g391
sg151
g412
sg436
g433
sg62
g342
sg42
g331
sg140
g402
stp560
Rp561
(dp562
g25
(lp563
g42
ag140
ag151
ag62
ag394
ag425
ag436
asbsg97
g0
(g11
g12
(dp564
g468
g459
sg192
g446
sg381
g372
sg526
g517
sg220
g473
stp565
Rp566
(dp567
g25
(lp568
g381
ag526
ag192
ag468
ag220
asbsg315
g0
(g11
g12
(dp569
g543
g541
sg490
g488
sg512
g510
sg122
g387
sg367
g365
sg498
g496
sg535
g533
stp570
Rp571
(dp572
g25
(lp573
g367
ag512
ag122
ag498
ag490
ag535
ag543
asbsg321
(lp574
NaNasg323
(lp575
g402
ag412
asbsS'G0_10'
p576
g0
(g30
g2
Ntp577
Rp578
(dp579
g6
(lp580
g0
(g35
g2
Ntp581
Rp582
(dp583
g39
I00
sg40
S'NNNNNNNNNNNNNNNNNNNNNNNNNN'
p584
sg8
g42
sg43
Nsg44
I00
sg45
S'G0_10-'
p585
sg47
I01
sg48
I26
sg49
S'G0_10-x'
p586
sg51
g0
(g52
g2
Ntp587
Rp588
(dp589
g39
I00
sg51
g582
sg8
S'x*'
p590
sg43
Nsg44
I01
sg45
g585
sg48
I26
sg49
S'G0_10-x*'
p591
sbsbag0
(g35
g2
Ntp592
Rp593
(dp594
g39
I00
sg40
S'NNNNNNNNNNNNNNNNNNNNNNNNNN'
p595
sg8
g62
sg43
Nsg44
I00
sg45
g585
sg47
I01
sg48
I26
sg49
S'G0_10-y'
p596
sg51
g0
(g52
g2
Ntp597
Rp598
(dp599
g39
I00
sg51
g593
sg8
S'y*'
p600
sg43
Nsg44
I01
sg45
g585
sg48
I26
sg49
S'G0_10-y*'
p601
sbsbasg8
S'And22'
p602
sg70
(lp603
NaNasg72
g0
(g11
g12
(dp604
tp605
Rp606
(dp607
g25
(lp608
sbsg78
g0
(g11
g12
(dp609
S'Kin0'
p610
g0
(g81
g2
Ntp611
Rp612
(dp613
g85
(lp614
g0
(g87
g2
Ntp615
Rp616
(dp617
g91
F1.0
sg8
S'InX'
p618
sg43
Nsg93
(lp619
g582
asg45
g585
sg49
S'G0_10-InX'
p620
sg96
Nsg97
(lp621
g0
(g99
g2
Ntp622
Rp623
(dp624
g39
I00
sg51
g0
(g103
g2
Ntp625
Rp626
(dp627
g39
I00
sg51
g623
sg8
S'inX*'
p628
sg43
Nsg44
I01
sg45
g585
sg93
(lp629
g588
asg48
I26
sg49
S'G0_10-inX*'
p630
sg110
(lp631
g588
asbsg8
S'inX'
p632
sg43
Nsg44
I00
sg48
I26
sg93
(lp633
g582
asg45
g585
sg49
S'G0_10-inX'
p634
sg110
(lp635
g582
asg116
I01
sbasg117
S'..........................'
p636
sbag0
(g87
g2
Ntp637
Rp638
(dp639
g91
F10.0
sg8
g122
sg43
Nsg93
(lp640
g588
ag0
(g124
g2
Ntp641
Rp642
(dp643
g39
I00
sg40
S'NNNN'
p644
sg8
S'_Anon6'
p645
sg43
Nsg44
I00
sg45
g585
sg47
I01
sg48
I4
sg49
S'G0_10-_Anon6'
p646
sg51
g0
(g52
g2
Ntp647
Rp648
(dp649
g39
I00
sg51
g642
sg8
S'_Anon6*'
p650
sg43
Nsg44
I01
sg45
g585
sg48
I4
sg49
S'G0_10-_Anon6*'
p651
sbsbag0
(g35
g2
Ntp652
Rp653
(dp654
g39
I00
sg40
S'NNNNNNNNNNNNNNNNNNNNNNNNNN'
p655
sg8
g140
sg43
Nsg44
I00
sg45
g585
sg47
I01
sg48
I26
sg49
S'G0_10-s'
p656
sg51
g0
(g52
g2
Ntp657
Rp658
(dp659
g39
I00
sg51
g653
sg8
S's*'
p660
sg43
Nsg44
I01
sg45
g585
sg48
I26
sg49
S'G0_10-s*'
p661
sbsbag0
(g35
g2
Ntp662
Rp663
(dp664
g39
I00
sg40
S'NNNNNNNNNNNNNNNNNNNNNNNNNN'
p665
sg8
g151
sg43
Nsg44
I00
sg45
g585
sg47
I01
sg48
I26
sg49
S'G0_10-c'
p666
sg51
g0
(g52
g2
Ntp667
Rp668
(dp669
g39
I00
sg51
g663
sg8
S'c*'
p670
sg43
Nsg44
I01
sg45
g585
sg48
I26
sg49
S'G0_10-c*'
p671
sbsbag0
(g124
g2
Ntp672
Rp673
(dp674
g39
I00
sg40
S'NNNN'
p675
sg8
S'_Anon7'
p676
sg43
Nsg44
I00
sg45
g585
sg47
I01
sg48
I4
sg49
S'G0_10-_Anon7'
p677
sg51
g0
(g52
g2
Ntp678
Rp679
(dp680
g39
I00
sg51
g673
sg8
S'_Anon7*'
p681
sg43
Nsg44
I01
sg45
g585
sg48
I4
sg49
S'G0_10-_Anon7*'
p682
sbsbag598
ag0
(g124
g2
Ntp683
Rp684
(dp685
g39
I00
sg40
S'NNNNNNNNNNNNNN'
p686
sg8
S'_Anon8'
p687
sg43
Nsg44
I00
sg45
g585
sg47
I01
sg48
I14
sg49
S'G0_10-_Anon8'
p688
sg51
g0
(g52
g2
Ntp689
Rp690
(dp691
g39
I00
sg51
g684
sg8
S'_Anon8*'
p692
sg43
Nsg44
I01
sg45
g585
sg48
I14
sg49
S'G0_10-_Anon8*'
p693
sbsbasg45
g585
sg49
S'G0_10-G'
p694
sg96
Nsg97
(lp695
g0
(g99
g2
Ntp696
Rp697
(dp698
g39
I00
sg51
g0
(g103
g2
Ntp699
Rp700
(dp701
g39
I00
sg51
g697
sg8
S'X*'
p702
sg43
Nsg44
I01
sg45
g585
sg93
(lp703
g582
asg48
I26
sg49
S'G0_10-X*'
p704
sg110
(lp705
g582
asbsg8
g192
sg43
Nsg44
I00
sg48
I26
sg93
(lp706
g588
asg45
g585
sg49
S'G0_10-X'
p707
sg110
(lp708
g588
asg116
I01
sbag0
(g99
g2
Ntp709
Rp710
(dp711
g39
I00
sg51
g0
(g103
g2
Ntp712
Rp713
(dp714
g39
I00
sg51
g710
sg8
S'SC*'
p715
sg43
Nsg44
I01
sg45
g585
sg93
(lp716
g679
ag668
ag658
ag648
asg48
I60
sg49
S'G0_10-SC*'
p717
sg110
(lp718
g679
ag668
ag658
ag648
asbsg8
S'SC'
p719
sg43
Nsg44
I00
sg48
I60
sg93
(lp720
g642
ag653
ag663
ag673
asg45
g585
sg49
S'G0_10-SC'
p721
sg110
(lp722
g642
ag653
ag663
ag673
asg116
I01
sbag0
(g99
g2
Ntp723
Rp724
(dp725
g39
I00
sg51
g0
(g103
g2
Ntp726
Rp727
(dp728
g39
I00
sg51
g724
sg8
S'Y*'
p729
sg43
Nsg44
I01
sg45
g585
sg93
(lp730
g690
ag593
asg48
I40
sg49
S'G0_10-Y*'
p731
sg110
(lp732
g690
ag593
asbsg8
g220
sg43
Nsg44
I00
sg48
I40
sg93
(lp733
g598
ag684
asg45
g585
sg49
S'G0_10-Y'
p734
sg110
(lp735
g598
ag684
asg116
I01
sbasg117
S'......((((((((((((((((((((+((((((((((........................................((((((((((+))))))))))))))))))))))))))))))))))))))))'
p736
sbasg8
g610
sg225
(lp737
g0
(g87
g2
Ntp738
Rp739
(dp740
g91
F0.0
sg8
S'wasteX'
p741
sg43
Nsg93
(lp742
g582
ag588
asg45
g585
sg49
S'G0_10-wasteX'
p743
sg96
Nsg97
(lp744
g623
ag697
asg117
S'((((((((((((((((((((((((((+))))))))))))))))))))))))))'
p745
sbag0
(g87
g2
Ntp746
Rp747
(dp748
g91
F10.0
sg8
S'Ga'
p749
sg43
Nsg93
(lp750
g642
ag653
ag663
ag673
ag598
ag684
asg45
g585
sg49
S'G0_10-Ga'
p751
sg96
Nsg97
(lp752
g710
ag724
asg117
S'((((((((((........................................((((((((((+))))))))))))))))))))....................'
p753
sbasg243
Finf
sg45
g585
sg244
I0
sg49
S'G0_10-Kin0'
p754
sbsS'Kin1'
p755
g0
(g81
g2
Ntp756
Rp757
(dp758
g85
(lp759
g0
(g87
g2
Ntp760
Rp761
(dp762
g91
F1.0
sg8
S'InY'
p763
sg43
Nsg93
(lp764
g593
asg45
g585
sg49
S'G0_10-InY'
p765
sg96
Nsg97
(lp766
g0
(g99
g2
Ntp767
Rp768
(dp769
g39
I00
sg51
g0
(g103
g2
Ntp770
Rp771
(dp772
g39
I00
sg51
g768
sg8
S'inY*'
p773
sg43
Nsg44
I01
sg45
g585
sg93
(lp774
g598
asg48
I26
sg49
S'G0_10-inY*'
p775
sg110
(lp776
g598
asbsg8
S'inY'
p777
sg43
Nsg44
I00
sg48
I26
sg93
(lp778
g593
asg45
g585
sg49
S'G0_10-inY'
p779
sg110
(lp780
g593
asg116
I01
sbasg117
S'..........................'
p781
sbag747
asg8
g755
sg225
(lp782
g0
(g87
g2
Ntp783
Rp784
(dp785
g91
F0.0
sg8
S'wasteY'
p786
sg43
Nsg93
(lp787
g593
ag598
ag684
asg45
g585
sg49
S'G0_10-wasteY'
p788
sg96
Nsg97
(lp789
g768
ag724
asg117
S'((((((((((((((((((((((((((+))))))))))))))))))))))))))..............'
p790
sbag0
(g87
g2
Ntp791
Rp792
(dp793
g91
F1.0
sg8
S'OutSC'
p794
sg43
Nsg93
(lp795
g642
ag653
ag663
ag673
asg45
g585
sg49
S'G0_10-OutSC'
p796
sg96
Nsg97
(lp797
g710
asg117
S'............................................................'
p798
sbasg243
Finf
sg45
g585
sg244
I0
sg49
S'G0_10-Kin1'
p799
sbstp800
Rp801
(dp802
g25
(lp803
g610
ag755
asbsg93
g0
(g11
g12
(dp804
g42
g582
sg151
g663
sg676
g673
sg645
g642
sg62
g593
sg687
g684
sg140
g653
stp805
Rp806
(dp807
g25
(lp808
g42
ag140
ag151
ag62
ag645
ag676
ag687
asbsg300
I2
sg45
g585
sg301
(lp809
g303
ag304
asg110
g0
(g11
g12
(dp810
g42
g582
sg151
g663
sg676
g673
sg645
g642
sg62
g593
sg687
g684
sg140
g653
stp811
Rp812
(dp813
g25
(lp814
g42
ag140
ag151
ag62
ag645
ag676
ag687
asbsg97
g0
(g11
g12
(dp815
g719
g710
sg192
g697
sg632
g623
sg777
g768
sg220
g724
stp816
Rp817
(dp818
g25
(lp819
g632
ag777
ag192
ag719
ag220
asbsg315
g0
(g11
g12
(dp820
g794
g792
sg741
g739
sg763
g761
sg122
g638
sg618
g616
sg749
g747
sg786
g784
stp821
Rp822
(dp823
g25
(lp824
g618
ag763
ag122
ag749
ag741
ag786
ag794
asbsg321
(lp825
NaNasg323
(lp826
g653
ag663
asbsS'G0_11'
p827
g0
(g30
g2
Ntp828
Rp829
(dp830
g6
(lp831
g0
(g35
g2
Ntp832
Rp833
(dp834
g39
I00
sg40
S'NNNNNNNNNNNNNNNNNNNNNNNNNN'
p835
sg8
g42
sg43
Nsg44
I00
sg45
S'G0_11-'
p836
sg47
I01
sg48
I26
sg49
S'G0_11-x'
p837
sg51
g0
(g52
g2
Ntp838
Rp839
(dp840
g39
I00
sg51
g833
sg8
S'x*'
p841
sg43
Nsg44
I01
sg45
g836
sg48
I26
sg49
S'G0_11-x*'
p842
sbsbag0
(g35
g2
Ntp843
Rp844
(dp845
g39
I00
sg40
S'NNNNNNNNNNNNNNNNNNNNNNNNNN'
p846
sg8
g62
sg43
Nsg44
I00
sg45
g836
sg47
I01
sg48
I26
sg49
S'G0_11-y'
p847
sg51
g0
(g52
g2
Ntp848
Rp849
(dp850
g39
I00
sg51
g844
sg8
S'y*'
p851
sg43
Nsg44
I01
sg45
g836
sg48
I26
sg49
S'G0_11-y*'
p852
sbsbasg8
S'And22'
p853
sg70
(lp854
NaNasg72
g0
(g11
g12
(dp855
tp856
Rp857
(dp858
g25
(lp859
sbsg78
g0
(g11
g12
(dp860
S'Kin0'
p861
g0
(g81
g2
Ntp862
Rp863
(dp864
g85
(lp865
g0
(g87
g2
Ntp866
Rp867
(dp868
g91
F1.0
sg8
S'InX'
p869
sg43
Nsg93
(lp870
g833
asg45
g836
sg49
S'G0_11-InX'
p871
sg96
Nsg97
(lp872
g0
(g99
g2
Ntp873
Rp874
(dp875
g39
I00
sg51
g0
(g103
g2
Ntp876
Rp877
(dp878
g39
I00
sg51
g874
sg8
S'inX*'
p879
sg43
Nsg44
I01
sg45
g836
sg93
(lp880
g839
asg48
I26
sg49
S'G0_11-inX*'
p881
sg110
(lp882
g839
asbsg8
S'inX'
p883
sg43
Nsg44
I00
sg48
I26
sg93
(lp884
g833
asg45
g836
sg49
S'G0_11-inX'
p885
sg110
(lp886
g833
asg116
I01
sbasg117
S'..........................'
p887
sbag0
(g87
g2
Ntp888
Rp889
(dp890
g91
F10.0
sg8
g122
sg43
Nsg93
(lp891
g839
ag0
(g124
g2
Ntp892
Rp893
(dp894
g39
I00
sg40
S'NNNN'
p895
sg8
S'_Anon9'
p896
sg43
Nsg44
I00
sg45
g836
sg47
I01
sg48
I4
sg49
S'G0_11-_Anon9'
p897
sg51
g0
(g52
g2
Ntp898
Rp899
(dp900
g39
I00
sg51
g893
sg8
S'_Anon9*'
p901
sg43
Nsg44
I01
sg45
g836
sg48
I4
sg49
S'G0_11-_Anon9*'
p902
sbsbag0
(g35
g2
Ntp903
Rp904
(dp905
g39
I00
sg40
S'NNNNNNNNNNNNNNNNNNNNNNNNNN'
p906
sg8
g140
sg43
Nsg44
I00
sg45
g836
sg47
I01
sg48
I26
sg49
S'G0_11-s'
p907
sg51
g0
(g52
g2
Ntp908
Rp909
(dp910
g39
I00
sg51
g904
sg8
S's*'
p911
sg43
Nsg44
I01
sg45
g836
sg48
I26
sg49
S'G0_11-s*'
p912
sbsbag0
(g35
g2
Ntp913
Rp914
(dp915
g39
I00
sg40
S'NNNNNNNNNNNNNNNNNNNNNNNNNN'
p916
sg8
g151
sg43
Nsg44
I00
sg45
g836
sg47
I01
sg48
I26
sg49
S'G0_11-c'
p917
sg51
g0
(g52
g2
Ntp918
Rp919
(dp920
g39
I00
sg51
g914
sg8
S'c*'
p921
sg43
Nsg44
I01
sg45
g836
sg48
I26
sg49
S'G0_11-c*'
p922
sbsbag0
(g124
g2
Ntp923
Rp924
(dp925
g39
I00
sg40
S'NNNN'
p926
sg8
S'_Anon10'
p927
sg43
Nsg44
I00
sg45
g836
sg47
I01
sg48
I4
sg49
S'G0_11-_Anon10'
p928
sg51
g0
(g52
g2
Ntp929
Rp930
(dp931
g39
I00
sg51
g924
sg8
S'_Anon10*'
p932
sg43
Nsg44
I01
sg45
g836
sg48
I4
sg49
S'G0_11-_Anon10*'
p933
sbsbag849
ag0
(g124
g2
Ntp934
Rp935
(dp936
g39
I00
sg40
S'NNNNNNNNNNNNNN'
p937
sg8
S'_Anon11'
p938
sg43
Nsg44
I00
sg45
g836
sg47
I01
sg48
I14
sg49
S'G0_11-_Anon11'
p939
sg51
g0
(g52
g2
Ntp940
Rp941
(dp942
g39
I00
sg51
g935
sg8
S'_Anon11*'
p943
sg43
Nsg44
I01
sg45
g836
sg48
I14
sg49
S'G0_11-_Anon11*'
p944
sbsbasg45
g836
sg49
S'G0_11-G'
p945
sg96
Nsg97
(lp946
g0
(g99
g2
Ntp947
Rp948
(dp949
g39
I00
sg51
g0
(g103
g2
Ntp950
Rp951
(dp952
g39
I00
sg51
g948
sg8
S'X*'
p953
sg43
Nsg44
I01
sg45
g836
sg93
(lp954
g833
asg48
I26
sg49
S'G0_11-X*'
p955
sg110
(lp956
g833
asbsg8
g192
sg43
Nsg44
I00
sg48
I26
sg93
(lp957
g839
asg45
g836
sg49
S'G0_11-X'
p958
sg110
(lp959
g839
asg116
I01
sbag0
(g99
g2
Ntp960
Rp961
(dp962
g39
I00
sg51
g0
(g103
g2
Ntp963
Rp964
(dp965
g39
I00
sg51
g961
sg8
S'SC*'
p966
sg43
Nsg44
I01
sg45
g836
sg93
(lp967
g930
ag919
ag909
ag899
asg48
I60
sg49
S'G0_11-SC*'
p968
sg110
(lp969
g930
ag919
ag909
ag899
asbsg8
S'SC'
p970
sg43
Nsg44
I00
sg48
I60
sg93
(lp971
g893
ag904
ag914
ag924
asg45
g836
sg49
S'G0_11-SC'
p972
sg110
(lp973
g893
ag904
ag914
ag924
asg116
I01
sbag0
(g99
g2
Ntp974
Rp975
(dp976
g39
I00
sg51
g0
(g103
g2
Ntp977
Rp978
(dp979
g39
I00
sg51
g975
sg8
S'Y*'
p980
sg43
Nsg44
I01
sg45
g836
sg93
(lp981
g941
ag844
asg48
I40
sg49
S'G0_11-Y*'
p982
sg110
(lp983
g941
ag844
asbsg8
g220
sg43
Nsg44
I00
sg48
I40
sg93
(lp984
g849
ag935
asg45
g836
sg49
S'G0_11-Y'
p985
sg110
(lp986
g849
ag935
asg116
I01
sbasg117
S'......((((((((((((((((((((+((((((((((........................................((((((((((+))))))))))))))))))))))))))))))))))))))))'
p987
sbasg8
g861
sg225
(lp988
g0
(g87
g2
Ntp989
Rp990
(dp991
g91
F0.0
sg8
S'wasteX'
p992
sg43
Nsg93
(lp993
g833
ag839
asg45
g836
sg49
S'G0_11-wasteX'
p994
sg96
Nsg97
(lp995
g874
ag948
asg117
S'((((((((((((((((((((((((((+))))))))))))))))))))))))))'
p996
sbag0
(g87
g2
Ntp997
Rp998
(dp999
g91
F10.0
sg8
S'Ga'
p1000
sg43
Nsg93
(lp1001
g893
ag904
ag914
ag924
ag849
ag935
asg45
g836
sg49
S'G0_11-Ga'
p1002
sg96
Nsg97
(lp1003
g961
ag975
asg117
S'((((((((((........................................((((((((((+))))))))))))))))))))....................'
p1004
sbasg243
Finf
sg45
g836
sg244
I0
sg49
S'G0_11-Kin0'
p1005
sbsS'Kin1'
p1006
g0
(g81
g2
Ntp1007
Rp1008
(dp1009
g85
(lp1010
g0
(g87
g2
Ntp1011
Rp1012
(dp1013
g91
F1.0
sg8
S'InY'
p1014
sg43
Nsg93
(lp1015
g844
asg45
g836
sg49
S'G0_11-InY'
p1016
sg96
Nsg97
(lp1017
g0
(g99
g2
Ntp1018
Rp1019
(dp1020
g39
I00
sg51
g0
(g103
g2
Ntp1021
Rp1022
(dp1023
g39
I00
sg51
g1019
sg8
S'inY*'
p1024
sg43
Nsg44
I01
sg45
g836
sg93
(lp1025
g849
asg48
I26
sg49
S'G0_11-inY*'
p1026
sg110
(lp1027
g849
asbsg8
S'inY'
p1028
sg43
Nsg44
I00
sg48
I26
sg93
(lp1029
g844
asg45
g836
sg49
S'G0_11-inY'
p1030
sg110
(lp1031
g844
asg116
I01
sbasg117
S'..........................'
p1032
sbag998
asg8
g1006
sg225
(lp1033
g0
(g87
g2
Ntp1034
Rp1035
(dp1036
g91
F0.0
sg8
S'wasteY'
p1037
sg43
Nsg93
(lp1038
g844
ag849
ag935
asg45
g836
sg49
S'G0_11-wasteY'
p1039
sg96
Nsg97
(lp1040
g1019
ag975
asg117
S'((((((((((((((((((((((((((+))))))))))))))))))))))))))..............'
p1041
sbag0
(g87
g2
Ntp1042
Rp1043
(dp1044
g91
F1.0
sg8
S'OutSC'
p1045
sg43
Nsg93
(lp1046
g893
ag904
ag914
ag924
asg45
g836
sg49
S'G0_11-OutSC'
p1047
sg96
Nsg97
(lp1048
g961
asg117
S'............................................................'
p1049
sbasg243
Finf
sg45
g836
sg244
I0
sg49
S'G0_11-Kin1'
p1050
sbstp1051
Rp1052
(dp1053
g25
(lp1054
g861
ag1006
asbsg93
g0
(g11
g12
(dp1055
g62
g844
sg151
g914
sg938
g935
sg927
g924
sg896
g893
sg42
g833
sg140
g904
stp1056
Rp1057
(dp1058
g25
(lp1059
g42
ag140
ag151
ag62
ag896
ag927
ag938
asbsg300
I2
sg45
g836
sg301
(lp1060
g303
ag304
asg110
g0
(g11
g12
(dp1061
g62
g844
sg151
g914
sg938
g935
sg927
g924
sg896
g893
sg42
g833
sg140
g904
stp1062
Rp1063
(dp1064
g25
(lp1065
g42
ag140
ag151
ag62
ag896
ag927
ag938
asbsg97
g0
(g11
g12
(dp1066
g970
g961
sg192
g948
sg883
g874
sg1028
g1019
sg220
g975
stp1067
Rp1068
(dp1069
g25
(lp1070
g883
ag1028
ag192
ag970
ag220
asbsg315
g0
(g11
g12
(dp1071
g1045
g1043
sg992
g990
sg1014
g1012
sg122
g889
sg869
g867
sg1000
g998
sg1037
g1035
stp1072
Rp1073
(dp1074
g25
(lp1075
g869
ag1014
ag122
ag1000
ag992
ag1037
ag1045
asbsg321
(lp1076
NaNasg323
(lp1077
g904
ag914
asbstp1078
Rp1079
(dp1080
g25
(lp1081
g325
ag29
ag576
ag827
asbsg70
(lp1082
sg72
g0
(g11
g12
(dp1083
tp1084
Rp1085
(dp1086
g25
(lp1087
sbsg78
g0
(g11
g12
(dp1088
S'G0_10-Kin0'
p1089
g612
sS'G0_10-Kin1'
p1090
g757
sS'G0_11-Kin1'
p1091
g1008
sS'G0_11-Kin0'
p1092
g863
sS'G0_00-Kin1'
p1093
g506
sS'G0_00-Kin0'
p1094
g361
sS'G0_01-Kin0'
p1095
g83
sS'G0_01-Kin1'
p1096
g248
stp1097
Rp1098
(dp1099
g25
(lp1100
g1094
ag1093
ag1095
ag1096
ag1089
ag1090
ag1092
ag1091
asbsg93
g0
(g11
g12
(dp1101
S'G0_10-_Anon7'
p1102
g673
sS'G0_10-_Anon6'
p1103
g642
sS'G0_10-y'
p1104
g593
sS'G0_10-x'
p1105
g582
sS'G0_11-_Anon10'
p1106
g924
sS'G0_11-_Anon11'
p1107
g935
sS'G0_10-s'
p1108
g653
sS'G0_10-_Anon8'
p1109
g684
sS'G0_01-s'
p1110
g137
sS'G0_01-_Anon4'
p1111
g159
sS'G0_10-c'
p1112
g663
sS'G0_01-x'
p1113
g37
sS'G0_00-s'
p1114
g402
sS'G0_01-y'
p1115
g59
sS'G0_11-s'
p1116
g904
sS'G0_00-x'
p1117
g331
sS'G0_00-y'
p1118
g342
sS'G0_01-_Anon3'
p1119
g126
sS'G0_01-_Anon5'
p1120
g170
sS'G0_11-_Anon9'
p1121
g893
sS'G0_11-x'
p1122
g833
sS'G0_11-y'
p1123
g844
sS'G0_00-c'
p1124
g412
sS'G0_00-_Anon2'
p1125
g433
sS'G0_11-c'
p1126
g914
sS'G0_00-_Anon0'
p1127
g391
sS'G0_00-_Anon1'
p1128
g422
sS'G0_01-c'
p1129
g148
stp1130
Rp1131
(dp1132
g25
(lp1133
g1117
ag1114
ag1124
ag1118
ag1127
ag1128
ag1125
ag1113
ag1110
ag1129
ag1115
ag1119
ag1111
ag1120
ag1105
ag1108
ag1112
ag1104
ag1103
ag1102
ag1109
ag1122
ag1116
ag1126
ag1123
ag1121
ag1106
ag1107
asbsS'signals'
p1134
g0
(g11
g12
(dp1135
g14
(lp1136
(g331
g325
I00
tp1137
a(g37
g29
I00
tp1138
asg15
(lp1139
(g412
g325
I00
tp1140
a(g148
g29
I00
tp1141
a(g663
g576
I00
tp1142
asg16
(lp1143
(g342
g325
I00
tp1144
a(g593
g576
I00
tp1145
asg17
(lp1146
(g137
g29
I00
tp1147
a(g653
g576
I00
tp1148
asg18
(lp1149
(g402
g325
I00
tp1150
a(g904
g827
I00
tp1151
asg19
(lp1152
(g59
g29
I00
tp1153
a(g844
g827
I00
tp1154
asg20
(lp1155
(g582
g576
I00
tp1156
a(g833
g827
I00
tp1157
asg21
(lp1158
(g914
g827
I00
tp1159
astp1160
Rp1161
(dp1162
g25
(lp1163
g14
ag16
ag18
ag15
ag19
ag17
ag20
ag21
asbsg45
S''
p1164
sg321
(lp1165
sS'template'
p1166
g0
(g11
g12
(dp1167
S'And22'
p1168
g1168
stp1169
Rp1170
(dp1171
g25
(lp1172
g1168
asbsS'signal_structs'
p1173
g0
(cutils
default_ordered_dict
p1174
g12
(dp1175
g18
(lp1176
NaNasg15
(lp1177
NaNaNasg21
(lp1178
Nasg17
(lp1179
NaNastp1180
Rp1181
(dp1182
S'default'
p1183
c__builtin__
list
p1184
sS'call'
p1185
I01
sg25
(lp1186
g18
ag15
ag17
ag21
asbsg110
g0
(g11
g12
(dp1187
S'G0_10-_Anon7'
p1188
g673
sS'G0_10-_Anon6'
p1189
g642
sS'G0_10-y'
p1190
g593
sS'G0_10-x'
p1191
g582
sS'G0_11-_Anon10'
p1192
g924
sS'G0_11-_Anon11'
p1193
g935
sS'G0_10-s'
p1194
g653
sS'G0_10-_Anon8'
p1195
g684
sS'G0_01-s'
p1196
g137
sS'G0_01-_Anon4'
p1197
g159
sS'G0_10-c'
p1198
g663
sS'G0_01-x'
p1199
g37
sS'G0_00-s'
p1200
g402
sS'G0_01-y'
p1201
g59
sS'G0_11-s'
p1202
g904
sS'G0_00-x'
p1203
g331
sS'G0_00-y'
p1204
g342
sS'G0_01-_Anon3'
p1205
g126
sS'G0_01-_Anon5'
p1206
g170
sS'G0_11-_Anon9'
p1207
g893
sS'G0_11-x'
p1208
g833
sS'G0_11-y'
p1209
g844
sS'G0_00-c'
p1210
g412
sS'G0_00-_Anon2'
p1211
g433
sS'G0_11-c'
p1212
g914
sS'G0_00-_Anon0'
p1213
g391
sS'G0_00-_Anon1'
p1214
g422
sS'G0_01-c'
p1215
g148
stp1216
Rp1217
(dp1218
g25
(lp1219
g1203
ag1200
ag1210
ag1204
ag1213
ag1214
ag1211
ag1199
ag1196
ag1215
ag1201
ag1205
ag1197
ag1206
ag1191
ag1194
ag1198
ag1190
ag1189
ag1188
ag1195
ag1208
ag1202
ag1212
ag1209
ag1207
ag1192
ag1193
asbsS'path'
p1220
S'/media/sf_vmshare/infomachine2/files/casey/pepper stuff/system2'
p1221
sg97
g0
(g11
g12
(dp1222
S'G0_11-inY'
p1223
g1019
sS'G0_11-inX'
p1224
g874
sS'G0_01-Y'
p1225
g211
sS'G0_01-X'
p1226
g183
sS'G0_10-SC'
p1227
g710
sS'G0_00-SC'
p1228
g459
sS'G0_00-X'
p1229
g446
sS'G0_00-Y'
p1230
g473
sS'G0_11-SC'
p1231
g961
sS'G0_11-X'
p1232
g948
sS'G0_11-Y'
p1233
g975
sS'G0_01-SC'
p1234
g197
sS'G0_10-X'
p1235
g697
sS'G0_10-inX'
p1236
g623
sS'G0_10-inY'
p1237
g768
sS'G0_00-inY'
p1238
g517
sS'G0_00-inX'
p1239
g372
sS'G0_10-Y'
p1240
g724
sS'G0_01-inX'
p1241
g101
sS'G0_01-inY'
p1242
g259
stp1243
Rp1244
(dp1245
g25
(lp1246
g1239
ag1238
ag1229
ag1228
ag1230
ag1241
ag1242
ag1226
ag1234
ag1225
ag1236
ag1237
ag1235
ag1227
ag1240
ag1224
ag1223
ag1232
ag1231
ag1233
asbsg315
g0
(g11
g12
(dp1247
S'G0_10-OutSC'
p1248
g792
sS'G0_10-InX'
p1249
g616
sS'G0_10-InY'
p1250
g761
sS'G0_11-wasteY'
p1251
g1035
sS'G0_11-wasteX'
p1252
g990
sS'G0_00-OutSC'
p1253
g541
sS'G0_00-InY'
p1254
g510
sS'G0_00-InX'
p1255
g365
sS'G0_00-wasteY'
p1256
g533
sS'G0_00-wasteX'
p1257
g488
sS'G0_11-G'
p1258
g889
sS'G0_01-wasteX'
p1259
g228
sS'G0_01-InY'
p1260
g252
sS'G0_00-G'
p1261
g387
sS'G0_10-Ga'
p1262
g747
sS'G0_00-Ga'
p1263
g496
sS'G0_01-G'
p1264
g120
sS'G0_01-OutSC'
p1265
g283
sS'G0_11-OutSC'
p1266
g1043
sS'G0_11-InY'
p1267
g1012
sS'G0_11-InX'
p1268
g867
sS'G0_11-Ga'
p1269
g998
sS'G0_10-wasteX'
p1270
g739
sS'G0_10-wasteY'
p1271
g784
sS'G0_01-InX'
p1272
g89
sS'G0_10-G'
p1273
g638
sS'G0_01-Ga'
p1274
g236
sS'G0_01-wasteY'
p1275
g275
stp1276
Rp1277
(dp1278
g25
(lp1279
g1255
ag1254
ag1261
ag1263
ag1257
ag1256
ag1253
ag1272
ag1260
ag1264
ag1274
ag1259
ag1275
ag1265
ag1249
ag1250
ag1273
ag1262
ag1270
ag1271
ag1248
ag1268
ag1267
ag1258
ag1269
ag1252
ag1251
ag1266
asbsS'signal_dummy_structs'
p1280
g0
(g1174
g12
(dp1281
tp1282
Rp1283
(dp1284
g1183
g1184
sg1185
I01
sg25
(lp1285
sbsg323
(lp1286
sb.